target datalayout = "e-m:e-p270:32:32-p271:32:32-p272:64:64-i64:64-i128:128-f80:128-n8:16:32:64-S128"
target triple = "x86_64-pc-linux-gnu"

%struct._object = type { %union.anon, ptr }
%union.anon = type { i64 }
%struct.PyDateTime_CAPI = type { ptr, ptr, ptr, ptr, ptr, ptr, ptr, ptr, ptr, ptr, ptr, ptr, ptr, ptr, ptr }
%struct.anon = type { i32, i32 }

@.str.24 = private unnamed_addr constant [4 x i8] c"O|p\00", align 1
@PyDateTimeAPI = internal global ptr null, align 8

; Function Attrs: alwaysinline nounwind uwtable
define internal i32 @_Py_IsImmortal(ptr noundef %0) #4 {
  %2 = alloca ptr, align 8
  store ptr %0, ptr %2, align 8, !tbaa !3
  %3 = load ptr, ptr %2, align 8, !tbaa !3
  %4 = getelementptr inbounds nuw %struct._object, ptr %3, i32 0, i32 0
  %5 = getelementptr inbounds nuw %struct.anon, ptr %4, i32 0, i32 0
  %6 = load i32, ptr %5, align 8, !tbaa !8
  %7 = icmp slt i32 %6, 0
  %8 = zext i1 %7 to i32
  ret i32 %8
}

; Function Attrs: alwaysinline nounwind uwtable
define internal void @Py_DECREF(ptr noundef %0) #4 {
  %2 = alloca ptr, align 8
  store ptr %0, ptr %2, align 8, !tbaa !3
  %3 = load ptr, ptr %2, align 8, !tbaa !3
  %4 = call i32 @_Py_IsImmortal(ptr noundef %3)
  %5 = icmp ne i32 %4, 0
  br i1 %5, label %6, label %7

6:                                                ; preds = %1
  br label %16

7:                                                ; preds = %1
  %8 = load ptr, ptr %2, align 8, !tbaa !3
  %9 = getelementptr inbounds nuw %struct._object, ptr %8, i32 0, i32 0
  %10 = getelementptr inbounds nuw %struct.anon, ptr %9, i32 0, i32 0
  %11 = load i32, ptr %10, align 8, !tbaa !8
  %12 = add i32 %11, -1
  store i32 %12, ptr %10, align 8, !tbaa !8
  %13 = icmp eq i32 %12, 0
  br i1 %13, label %14, label %16

14:                                               ; preds = %7
  %15 = load ptr, ptr %2, align 8, !tbaa !3
  call void @_Py_Dealloc(ptr noundef %15)
  br label %16

16:                                               ; preds = %6, %14, %7
  ret void
}

; Function Attrs: nounwind uwtable
define internal ptr @get_date_fromtimestamp(ptr noundef %0, ptr noundef %1) #0 {
  %3 = alloca ptr, align 8
  %4 = alloca ptr, align 8
  %5 = alloca ptr, align 8
  %6 = alloca ptr, align 8
  %7 = alloca ptr, align 8
  %8 = alloca ptr, align 8
  %9 = alloca i32, align 4
  %10 = alloca i32, align 4
  store ptr %0, ptr %4, align 8, !tbaa !3
  store ptr %1, ptr %5, align 8, !tbaa !3
  call void @llvm.lifetime.start.p0(i64 8, ptr %6) #6
  store ptr null, ptr %6, align 8, !tbaa !3
  call void @llvm.lifetime.start.p0(i64 8, ptr %7) #6
  store ptr null, ptr %7, align 8, !tbaa !3
  call void @llvm.lifetime.start.p0(i64 8, ptr %8) #6
  store ptr null, ptr %8, align 8, !tbaa !3
  call void @llvm.lifetime.start.p0(i64 4, ptr %9) #6
  store i32 0, ptr %9, align 4, !tbaa !9
  %11 = load ptr, ptr %5, align 8, !tbaa !3
  %12 = call i32 (ptr, ptr, ...) @PyArg_ParseTuple(ptr noundef %11, ptr noundef @.str.24, ptr noundef %7, ptr noundef %9)
  %13 = icmp ne i32 %12, 0
  br i1 %13, label %15, label %14

14:                                               ; preds = %2
  store ptr null, ptr %3, align 8
  store i32 1, ptr %10, align 4
  br label %44

15:                                               ; preds = %2
  %16 = load ptr, ptr %7, align 8, !tbaa !3
  %17 = call ptr (i64, ...) @PyTuple_Pack(i64 noundef 1, ptr noundef %16)
  store ptr %17, ptr %6, align 8, !tbaa !3
  %18 = icmp eq ptr %17, null
  br i1 %18, label %19, label %20

19:                                               ; preds = %15
  store ptr null, ptr %3, align 8
  store i32 1, ptr %10, align 4
  br label %44

20:                                               ; preds = %15
  %21 = load i32, ptr %9, align 4, !tbaa !9
  %22 = icmp ne i32 %21, 0
  br i1 %22, label %23, label %32

23:                                               ; preds = %20
  %24 = load ptr, ptr @PyDateTimeAPI, align 8, !tbaa !24
  %25 = getelementptr inbounds nuw %struct.PyDateTime_CAPI, ptr %24, i32 0, i32 12
  %26 = load ptr, ptr %25, align 8, !tbaa !32
  %27 = load ptr, ptr @PyDateTimeAPI, align 8, !tbaa !24
  %28 = getelementptr inbounds nuw %struct.PyDateTime_CAPI, ptr %27, i32 0, i32 0
  %29 = load ptr, ptr %28, align 8, !tbaa !25
  %30 = load ptr, ptr %6, align 8, !tbaa !3
  %31 = call ptr %26(ptr noundef %29, ptr noundef %30)
  store ptr %31, ptr %8, align 8, !tbaa !3
  br label %41

32:                                               ; preds = %20
  %33 = load ptr, ptr @PyDateTimeAPI, align 8, !tbaa !24
  %34 = getelementptr inbounds nuw %struct.PyDateTime_CAPI, ptr %33, i32 0, i32 12
  %35 = load ptr, ptr %34, align 8, !tbaa !32
  %36 = load ptr, ptr @PyDateTimeAPI, align 8, !tbaa !24
  %37 = getelementptr inbounds nuw %struct.PyDateTime_CAPI, ptr %36, i32 0, i32 0
  %38 = load ptr, ptr %37, align 8, !tbaa !25
  %39 = load ptr, ptr %6, align 8, !tbaa !3
  %40 = call ptr %35(ptr noundef %38, ptr noundef %39)
  store ptr %40, ptr %8, align 8, !tbaa !3
  br label %41

41:                                               ; preds = %32, %23
  %42 = load ptr, ptr %6, align 8, !tbaa !3
  call void @Py_DECREF(ptr noundef %42)
  %43 = load ptr, ptr %8, align 8, !tbaa !3
  store ptr %43, ptr %3, align 8
  store i32 1, ptr %10, align 4
  br label %44

44:                                               ; preds = %41, %19, %14
  call void @llvm.lifetime.end.p0(i64 4, ptr %9) #6
  call void @llvm.lifetime.end.p0(i64 8, ptr %8) #6
  call void @llvm.lifetime.end.p0(i64 8, ptr %7) #6
  call void @llvm.lifetime.end.p0(i64 8, ptr %6) #6
  %45 = load ptr, ptr %3, align 8
  ret ptr %45
}