; Function Attrs: nounwind uwtable
define internal ptr @get_date_fromtimestamp(ptr readnone captures(none) %0, ptr noundef %1) #0 {
  %3 = alloca ptr, align 8
  %4 = alloca i32, align 4
  call void @llvm.lifetime.start.p0(i64 8, ptr nonnull %3) #4
  store ptr null, ptr %3, align 8, !tbaa !23
  call void @llvm.lifetime.start.p0(i64 4, ptr nonnull %4) #4
  store i32 0, ptr %4, align 4, !tbaa !22
  %5 = call i32 (ptr, ptr, ...) @PyArg_ParseTuple(ptr noundef %1, ptr noundef nonnull @.str.24, ptr noundef nonnull %3, ptr noundef nonnull %4) #4
  %.not = icmp eq i32 %5, 0
  br i1 %.not, label %Py_DECREF.exit, label %6

6:                                                ; preds = %2
  %7 = load ptr, ptr %3, align 8, !tbaa !23
  %8 = call ptr (i64, ...) @PyTuple_Pack(i64 noundef 1, ptr noundef %7) #4
  %9 = icmp eq ptr %8, null
  br i1 %9, label %Py_DECREF.exit, label %10

10:                                               ; preds = %6
  %11 = load ptr, ptr @PyDateTimeAPI, align 8, !tbaa !24
  %12 = getelementptr inbounds nuw i8, ptr %11, i64 96
  %13 = load ptr, ptr %12, align 8, !tbaa !33
  %14 = load ptr, ptr %11, align 8, !tbaa !25
  %15 = call ptr %13(ptr noundef %14, ptr noundef nonnull %8) #4
  %16 = load i32, ptr %8, align 8, !tbaa !3
  %.not.i = icmp sgt i32 %16, -1
  br i1 %.not.i, label %17, label %Py_DECREF.exit

17:                                               ; preds = %10
  %18 = add nsw i32 %16, -1
  store i32 %18, ptr %8, align 8, !tbaa !3
  %19 = icmp eq i32 %18, 0
  br i1 %19, label %20, label %Py_DECREF.exit

20:                                               ; preds = %17
  call void @_Py_Dealloc(ptr noundef nonnull %8) #4
  br label %Py_DECREF.exit

Py_DECREF.exit:                                   ; preds = %20, %17, %10, %6, %2
  %.06 = phi ptr [ null, %2 ], [ null, %6 ], [ %15, %10 ], [ %15, %17 ], [ %15, %20 ]
  call void @llvm.lifetime.end.p0(i64 4, ptr nonnull %4) #4
  call void @llvm.lifetime.end.p0(i64 8, ptr nonnull %3) #4
  ret ptr %.06
}